target datalayout = "e-m:e-p270:32:32-p271:32:32-p272:64:64-i64:64-i128:128-f80:128-n8:16:32:64-S128"
target triple = "x86_64-pc-linux-gnu"

%struct.lua_TValue = type { %union.Value, [1 x i32], i32 }
%union.Value = type { ptr }

; Function Attrs: mustprogress nounwind uwtable
define internal noundef i32 @_ZL21luauF_vectormagnitudeP9lua_StateP10lua_TValueS2_iS2_i(ptr noundef %0, ptr noundef %1, ptr noundef %2, i32 noundef %3, ptr noundef %4, i32 noundef %5) #0 {
  %7 = alloca i32, align 4
  %8 = alloca ptr, align 8
  %9 = alloca ptr, align 8
  %10 = alloca ptr, align 8
  %11 = alloca i32, align 4
  %12 = alloca ptr, align 8
  %13 = alloca i32, align 4
  %14 = alloca ptr, align 8
  %15 = alloca ptr, align 8
  store ptr %0, ptr %8, align 8, !tbaa !4
  store ptr %1, ptr %9, align 8, !tbaa !9
  store ptr %2, ptr %10, align 8, !tbaa !9
  store i32 %3, ptr %11, align 4, !tbaa !11
  store ptr %4, ptr %12, align 8, !tbaa !9
  store i32 %5, ptr %13, align 4, !tbaa !11
  %16 = load i32, ptr %13, align 4, !tbaa !11
  %17 = icmp sge i32 %16, 1
  br i1 %17, label %18, label %58

18:                                               ; preds = %6
  %19 = load i32, ptr %11, align 4, !tbaa !11
  %20 = icmp sle i32 %19, 1
  br i1 %20, label %21, label %58

21:                                               ; preds = %18
  %22 = load ptr, ptr %10, align 8, !tbaa !9
  %23 = getelementptr inbounds nuw %struct.lua_TValue, ptr %22, i32 0, i32 2
  %24 = load i32, ptr %23, align 4, !tbaa !13
  %25 = icmp eq i32 %24, 4
  br i1 %25, label %26, label %58

26:                                               ; preds = %21
  call void @llvm.lifetime.start.p0(i64 8, ptr %14) #17
  %27 = load ptr, ptr %10, align 8, !tbaa !9
  %28 = getelementptr inbounds nuw %struct.lua_TValue, ptr %27, i32 0, i32 0
  %29 = getelementptr inbounds [2 x float], ptr %28, i64 0, i64 0
  store ptr %29, ptr %14, align 8, !tbaa !72
  call void @llvm.lifetime.start.p0(i64 8, ptr %15) #17
  %30 = load ptr, ptr %9, align 8, !tbaa !9
  store ptr %30, ptr %15, align 8, !tbaa !9
  %31 = load ptr, ptr %14, align 8, !tbaa !72
  %32 = getelementptr inbounds float, ptr %31, i64 0
  %33 = load float, ptr %32, align 4, !tbaa !70
  %34 = load ptr, ptr %14, align 8, !tbaa !72
  %35 = getelementptr inbounds float, ptr %34, i64 0
  %36 = load float, ptr %35, align 4, !tbaa !70
  %37 = load ptr, ptr %14, align 8, !tbaa !72
  %38 = getelementptr inbounds float, ptr %37, i64 1
  %39 = load float, ptr %38, align 4, !tbaa !70
  %40 = load ptr, ptr %14, align 8, !tbaa !72
  %41 = getelementptr inbounds float, ptr %40, i64 1
  %42 = load float, ptr %41, align 4, !tbaa !70
  %43 = fmul float %39, %42
  %44 = call float @llvm.fmuladd.f32(float %33, float %36, float %43)
  %45 = load ptr, ptr %14, align 8, !tbaa !72
  %46 = getelementptr inbounds float, ptr %45, i64 2
  %47 = load float, ptr %46, align 4, !tbaa !70
  %48 = load ptr, ptr %14, align 8, !tbaa !72
  %49 = getelementptr inbounds float, ptr %48, i64 2
  %50 = load float, ptr %49, align 4, !tbaa !70
  %51 = call float @llvm.fmuladd.f32(float %47, float %50, float %44)
  %52 = call float @llvm.sqrt.f32(float %51)
  %53 = fpext float %52 to double
  %54 = load ptr, ptr %15, align 8, !tbaa !9
  %55 = getelementptr inbounds nuw %struct.lua_TValue, ptr %54, i32 0, i32 0
  store double %53, ptr %55, align 8, !tbaa !15
  %56 = load ptr, ptr %15, align 8, !tbaa !9
  %57 = getelementptr inbounds nuw %struct.lua_TValue, ptr %56, i32 0, i32 2
  store i32 3, ptr %57, align 4, !tbaa !13
  call void @llvm.lifetime.end.p0(i64 8, ptr %15) #17
  store i32 1, ptr %7, align 4
  call void @llvm.lifetime.end.p0(i64 8, ptr %14) #17
  br label %59

58:                                               ; preds = %21, %18, %6
  store i32 -1, ptr %7, align 4
  br label %59

59:                                               ; preds = %58, %26
  %60 = load i32, ptr %7, align 4
  ret i32 %60
}